Certificate:
    Data:
        Version: 3 (0x2)
        Serial Number: 4097 (0x1001)
    Signature Algorithm: sha256WithRSAEncryption
        Issuer: C=SW, ST=STOCKHOLM, L=KISTA, O=KTH, OU=CoS, CN=TP CA vamshi@kth.se srinathv@kth.se/emailAddress=vamshi@kth.se
        Validity
            Not Before: Dec 15 16:33:10 2017 GMT
            Not After : Dec 15 16:33:10 2018 GMT
        Subject: C=SW, ST=STOCKHOLM, O=KTH, OU=CoS, CN=TP Client vamshi@kth.se srinathv@kth.se/emailAddress=vamshi@kth.se
        Subject Public Key Info:
            Public Key Algorithm: rsaEncryption
                Public-Key: (1024 bit)
                Modulus:
                    00:b9:59:ce:85:a1:f4:8f:6a:6c:db:0e:dd:72:79:
                    c0:8b:8e:85:71:e4:ce:40:31:fd:99:b1:0b:06:5a:
                    e5:10:92:85:6a:1b:3d:47:4d:1c:4d:94:e3:5b:51:
                    4b:34:7f:ab:b2:fe:3c:57:97:e8:b0:c5:fa:fd:21:
                    b6:0c:ce:fc:87:41:58:1d:92:4b:2e:a4:34:cd:e6:
                    11:81:0b:80:6b:da:d1:0b:aa:9c:39:45:40:cc:ad:
                    10:93:69:75:82:16:e1:74:04:3f:a0:cc:0e:4a:23:
                    b5:41:fe:d4:bc:a3:ad:98:49:09:25:34:6a:dd:82:
                    a1:7b:6e:d8:ab:82:16:4f:d5
                Exponent: 65537 (0x10001)
        X509v3 extensions:
            X509v3 Basic Constraints: 
                CA:FALSE
            X509v3 Key Usage: 
                Digital Signature, Non Repudiation, Key Encipherment
            Netscape Comment: 
                OpenSSL Generated Certificate
            X509v3 Subject Key Identifier: 
                04:EE:04:D7:01:6C:4A:45:9F:BD:46:4A:7C:88:4B:83:1E:2B:79:77
            X509v3 Authority Key Identifier: 
                keyid:41:91:A7:D4:55:BB:E7:DA:3A:5E:DD:FD:A8:24:EC:32:A7:97:39:CD

    Signature Algorithm: sha256WithRSAEncryption
         5a:bf:58:02:46:90:35:e8:71:f8:cb:f7:4d:1c:e7:cd:be:27:
         1f:6e:ee:07:04:9b:79:08:9f:4c:3e:b1:9b:99:1c:6e:b3:6f:
         97:4e:a3:9e:4d:42:78:60:eb:b5:8c:54:78:de:05:78:5a:3e:
         84:82:99:fa:eb:8b:72:43:16:69:e4:b9:38:66:f9:77:47:64:
         4d:d6:e8:7b:dd:5e:4e:51:f3:ad:d2:29:e0:65:40:e0:fe:0e:
         81:a8:86:1c:a5:e9:1c:aa:e6:fb:e9:eb:cb:fd:ee:18:fd:7d:
         a2:9d:c6:f3:f6:0b:4f:5a:0b:4a:90:df:b5:21:a8:e6:e7:51:
         a5:6e:e2:b7:5a:d3:53:a6:63:f4:25:db:0a:28:63:da:d1:cb:
         02:3e:38:44:1b:f2:1e:7f:19:54:ca:05:73:c6:e4:f4:b0:0d:
         b9:ff:9f:3c:25:d2:ce:77:f2:3d:03:35:da:32:0f:3e:d1:39:
         aa:28:1f:2b:5f:c0:e9:0a:bd:6e:8c:c3:e1:8e:65:f9:aa:f6:
         0c:06:91:c9:34:ed:d6:01:8f:85:09:6f:b1:58:ed:4a:ac:6b:
         e0:9c:7d:65:b6:f7:5a:45:fe:a9:61:87:5c:f1:b9:e2:95:e9:
         be:d2:15:03:42:06:98:70:e4:55:8c:68:54:b1:2f:df:c9:a5:
         ad:22:c0:62:e2:53:47:e9:49:db:6e:d4:cd:4f:51:f6:c6:68:
         ab:cb:a0:a0:ec:40:45:ef:61:f8:06:70:6a:f3:35:63:8a:a6:
         2c:2b:f0:f3:17:5d:9b:fb:2f:f6:d4:67:12:cb:9a:59:c6:2c:
         8d:11:78:71:d3:01:b3:e4:2f:77:8f:0a:85:e1:19:12:bf:eb:
         bc:be:44:3f:02:66:33:14:15:d9:49:c4:0e:b9:ba:72:25:97:
         13:07:d4:5f:d5:f1:6f:4f:03:7f:aa:d2:d5:12:b4:ac:cb:1d:
         58:78:cd:6a:b4:be:85:a5:e1:77:c0:a4:a8:0c:37:63:b1:5a:
         9f:9f:2c:77:f6:b6:75:9c:af:96:a7:43:5a:b1:4f:34:44:50:
         41:6e:ce:df:38:f6:06:ae:f8:61:c5:b2:b7:66:c3:cd:bf:8d:
         90:b4:bc:99:38:5b:09:3c:bb:36:19:71:c2:8f:5e:49:be:05:
         f0:0f:1e:06:be:b1:73:5a:f9:97:6a:29:49:8c:1a:9f:b4:5a:
         31:6d:2f:93:cf:18:47:bb:13:21:d9:5e:39:c1:e6:29:ea:b2:
         d4:6b:3c:47:a6:dd:f5:eb:8f:88:4e:eb:b6:00:fc:7f:f3:73:
         b9:df:6d:83:c2:8e:7f:fb:d4:08:95:24:6c:02:c0:ca:61:8d:
         11:42:39:d6:1c:a3:15:07
-----BEGIN CERTIFICATE-----
MIIEqjCCApKgAwIBAgICEAEwDQYJKoZIhvcNAQELBQAwgZkxCzAJBgNVBAYTAlNX
MRIwEAYDVQQIDAlTVE9DS0hPTE0xDjAMBgNVBAcMBUtJU1RBMQwwCgYDVQQKDANL
VEgxDDAKBgNVBAsMA0NvUzEsMCoGA1UEAwwjVFAgQ0EgdmFtc2hpQGt0aC5zZSBz
cmluYXRodkBrdGguc2UxHDAaBgkqhkiG9w0BCQEWDXZhbXNoaUBrdGguc2UwHhcN
MTcxMjE1MTYzMzEwWhcNMTgxMjE1MTYzMzEwWjCBjTELMAkGA1UEBhMCU1cxEjAQ
BgNVBAgMCVNUT0NLSE9MTTEMMAoGA1UECgwDS1RIMQwwCgYDVQQLDANDb1MxMDAu
BgNVBAMMJ1RQIENsaWVudCB2YW1zaGlAa3RoLnNlIHNyaW5hdGh2QGt0aC5zZTEc
MBoGCSqGSIb3DQEJARYNdmFtc2hpQGt0aC5zZTCBnzANBgkqhkiG9w0BAQEFAAOB
jQAwgYkCgYEAuVnOhaH0j2ps2w7dcnnAi46FceTOQDH9mbELBlrlEJKFahs9R00c
TZTjW1FLNH+rsv48V5fosMX6/SG2DM78h0FYHZJLLqQ0zeYRgQuAa9rRC6qcOUVA
zK0Qk2l1ghbhdAQ/oMwOSiO1Qf7UvKOtmEkJJTRq3YKhe27Yq4IWT9UCAwEAAaOB
iTCBhjAJBgNVHRMEAjAAMAsGA1UdDwQEAwIF4DAsBglghkgBhvhCAQ0EHxYdT3Bl
blNTTCBHZW5lcmF0ZWQgQ2VydGlmaWNhdGUwHQYDVR0OBBYEFATuBNcBbEpFn71G
SnyIS4MeK3l3MB8GA1UdIwQYMBaAFEGRp9RVu+faOl7d/agk7DKnlznNMA0GCSqG
SIb3DQEBCwUAA4ICAQBav1gCRpA16HH4y/dNHOfNvicfbu4HBJt5CJ9MPrGbmRxu
s2+XTqOeTUJ4YOu1jFR43gV4Wj6Egpn664tyQxZp5Lk4Zvl3R2RN1uh73V5OUfOt
0ingZUDg/g6BqIYcpekcqub76evL/e4Y/X2incbz9gtPWgtKkN+1Iajm51GlbuK3
WtNTpmP0JdsKKGPa0csCPjhEG/IefxlUygVzxuT0sA25/588JdLOd/I9AzXaMg8+
0TmqKB8rX8DpCr1ujMPhjmX5qvYMBpHJNO3WAY+FCW+xWO1KrGvgnH1ltvdaRf6p
YYdc8bnilem+0hUDQgaYcORVjGhUsS/fyaWtIsBi4lNH6UnbbtTNT1H2xmiry6Cg
7EBF72H4BnBq8zVjiqYsK/DzF12b+y/21GcSy5pZxiyNEXhx0wGz5C93jwqF4RkS
v+u8vkQ/AmYzFBXZScQOubpyJZcTB9Rf1fFvTwN/qtLVErSsyx1YeM1qtL6FpeF3
wKSoDDdjsVqfnyx39rZ1nK+Wp0NasU80RFBBbs7fOPYGrvhhxbK3ZsPNv42QtLyZ
OFsJPLs2GXHCj15JvgXwDx4GvrFzWvmXailJjBqftFoxbS+TzxhHuxMh2V45weYp
6rLUazxHpt3164+ITuu2APx/83O5322Dwo5/+9QIlSRsAsDKYY0RQjnWHKMVBw==
-----END CERTIFICATE-----
