Certificate:
    Data:
        Version: 3 (0x2)
        Serial Number: 4096 (0x1000)
    Signature Algorithm: sha256WithRSAEncryption
        Issuer: C=SW, ST=STOCKHOLM, L=KISTA, O=KTH, OU=CoS, CN=TP CA vamshi@kth.se srinathv@kth.se/emailAddress=vamshi@kth.se
        Validity
            Not Before: Dec 15 16:24:14 2017 GMT
            Not After : Dec 15 16:24:14 2018 GMT
        Subject: C=SW, ST=STOCKHOLM, O=KTH, OU=CoS, CN=TP Server vamshi@kth.se srinathv@kth.se/emailAddress=vamshi@kth.se
        Subject Public Key Info:
            Public Key Algorithm: rsaEncryption
                Public-Key: (1024 bit)
                Modulus:
                    00:a8:cb:2f:5e:d4:f7:b7:22:fd:03:5e:f5:7a:71:
                    11:bf:95:03:65:1d:20:7b:29:0f:92:de:37:7d:8b:
                    fa:ea:13:62:78:23:c4:9d:a8:63:36:23:9a:b1:2f:
                    a1:91:f6:82:01:0d:82:69:42:02:14:bc:5f:3b:11:
                    b3:68:6e:0a:7a:9a:d7:cf:2d:53:1f:33:26:a0:cf:
                    6e:b9:37:49:8c:3c:26:bf:79:d3:7a:16:16:6c:3d:
                    85:b0:68:a3:b3:9e:3c:da:37:5f:0f:0f:d6:2c:54:
                    1d:d2:48:c0:eb:d6:8f:5c:f4:31:2e:5a:1e:ee:60:
                    bf:c9:68:4f:f6:79:00:54:6f
                Exponent: 65537 (0x10001)
        X509v3 extensions:
            X509v3 Basic Constraints: 
                CA:FALSE
            X509v3 Key Usage: 
                Digital Signature, Non Repudiation, Key Encipherment
            Netscape Comment: 
                OpenSSL Generated Certificate
            X509v3 Subject Key Identifier: 
                77:57:09:85:84:62:F1:43:F4:7C:85:D5:3C:80:0E:F9:8F:97:4A:21
            X509v3 Authority Key Identifier: 
                keyid:41:91:A7:D4:55:BB:E7:DA:3A:5E:DD:FD:A8:24:EC:32:A7:97:39:CD

    Signature Algorithm: sha256WithRSAEncryption
         62:2b:01:7f:03:0e:11:e3:41:86:9a:1a:24:db:8a:55:64:96:
         38:66:a5:54:80:43:3a:90:c1:fd:6c:04:02:86:05:82:5a:61:
         b9:54:e3:3c:b0:74:9d:c2:9e:9a:33:1a:fd:c2:be:26:dd:fb:
         de:a6:a2:96:fe:71:8a:06:49:80:e7:9c:56:52:05:8d:18:40:
         03:a3:89:d2:5f:41:8e:80:81:e2:4b:6b:38:31:d9:1d:e1:cc:
         4d:67:52:6d:de:1e:40:fa:ff:d2:fd:d0:17:53:54:6c:89:dc:
         3b:1d:a8:55:4d:e9:78:df:cd:22:d9:fb:2f:0b:fe:a3:ad:ad:
         b4:00:fe:1d:d4:df:fb:4d:b1:ed:dd:b1:d4:83:02:8d:95:f8:
         0f:8a:49:ca:4c:ce:f5:d7:c3:a4:e3:0f:46:22:4d:a4:3e:ea:
         c0:e9:03:5c:57:fb:e4:97:9b:29:5f:eb:9d:34:37:72:6c:d4:
         7f:db:06:c9:15:40:d1:bd:9f:06:3d:4b:a9:ee:2f:74:ab:d2:
         de:de:08:a2:cf:61:9b:a0:d2:2d:8b:23:82:f1:26:ec:47:2c:
         c3:f5:1c:c6:f8:74:5f:90:bc:a0:24:83:e3:c9:5a:47:9c:15:
         06:a0:b8:78:1f:91:50:25:65:67:f2:42:eb:0b:6d:0f:a1:e1:
         37:5a:ab:8a:bf:55:e1:2f:dc:e1:c2:6c:24:a0:1c:f2:8f:c1:
         51:f9:f0:03:b8:a5:95:99:d0:74:e4:ed:2b:15:76:bb:49:76:
         55:b0:7b:d7:51:45:30:08:20:3b:40:97:e7:e8:99:b2:44:96:
         b1:9b:ea:fa:ce:e0:83:1c:14:a6:da:6f:9c:ca:75:62:5a:28:
         41:6c:11:e3:f7:a0:cf:aa:2e:2d:ac:89:f4:56:dc:c8:bb:0d:
         e4:64:50:99:fc:53:d2:22:a9:26:19:86:b6:de:0c:cf:7e:7b:
         46:02:50:fc:1b:14:53:16:ad:24:c3:12:98:29:b2:e3:53:dd:
         c1:c4:75:2d:1f:c2:1b:b0:a8:19:c7:48:71:a5:c0:88:0f:65:
         75:6d:bc:80:b2:83:5b:fd:e2:bf:f6:e8:d2:a3:f0:38:e1:33:
         5b:17:f5:15:0a:53:15:30:b8:25:11:c3:35:4f:37:79:02:00:
         21:98:02:93:cc:89:41:b6:18:5c:58:72:a5:70:ff:0c:23:09:
         ef:75:d7:09:07:7e:80:f1:4d:57:87:cb:35:0c:0f:17:37:11:
         41:7a:fd:e3:13:53:fc:50:46:75:0e:d0:76:f4:a3:d7:9e:fa:
         6a:d8:93:c4:c8:11:bd:d9:67:63:67:ea:52:19:ca:93:31:72:
         9d:84:4d:a5:a7:87:9a:52
-----BEGIN CERTIFICATE-----
MIIEqjCCApKgAwIBAgICEAAwDQYJKoZIhvcNAQELBQAwgZkxCzAJBgNVBAYTAlNX
MRIwEAYDVQQIDAlTVE9DS0hPTE0xDjAMBgNVBAcMBUtJU1RBMQwwCgYDVQQKDANL
VEgxDDAKBgNVBAsMA0NvUzEsMCoGA1UEAwwjVFAgQ0EgdmFtc2hpQGt0aC5zZSBz
cmluYXRodkBrdGguc2UxHDAaBgkqhkiG9w0BCQEWDXZhbXNoaUBrdGguc2UwHhcN
MTcxMjE1MTYyNDE0WhcNMTgxMjE1MTYyNDE0WjCBjTELMAkGA1UEBhMCU1cxEjAQ
BgNVBAgMCVNUT0NLSE9MTTEMMAoGA1UECgwDS1RIMQwwCgYDVQQLDANDb1MxMDAu
BgNVBAMMJ1RQIFNlcnZlciB2YW1zaGlAa3RoLnNlIHNyaW5hdGh2QGt0aC5zZTEc
MBoGCSqGSIb3DQEJARYNdmFtc2hpQGt0aC5zZTCBnzANBgkqhkiG9w0BAQEFAAOB
jQAwgYkCgYEAqMsvXtT3tyL9A171enERv5UDZR0geykPkt43fYv66hNieCPEnahj
NiOasS+hkfaCAQ2CaUICFLxfOxGzaG4KeprXzy1THzMmoM9uuTdJjDwmv3nTehYW
bD2FsGijs5482jdfDw/WLFQd0kjA69aPXPQxLloe7mC/yWhP9nkAVG8CAwEAAaOB
iTCBhjAJBgNVHRMEAjAAMAsGA1UdDwQEAwIF4DAsBglghkgBhvhCAQ0EHxYdT3Bl
blNTTCBHZW5lcmF0ZWQgQ2VydGlmaWNhdGUwHQYDVR0OBBYEFHdXCYWEYvFD9HyF
1TyADvmPl0ohMB8GA1UdIwQYMBaAFEGRp9RVu+faOl7d/agk7DKnlznNMA0GCSqG
SIb3DQEBCwUAA4ICAQBiKwF/Aw4R40GGmhok24pVZJY4ZqVUgEM6kMH9bAQChgWC
WmG5VOM8sHSdwp6aMxr9wr4m3fvepqKW/nGKBkmA55xWUgWNGEADo4nSX0GOgIHi
S2s4Mdkd4cxNZ1Jt3h5A+v/S/dAXU1Rsidw7HahVTel4380i2fsvC/6jra20AP4d
1N/7TbHt3bHUgwKNlfgPiknKTM7118Ok4w9GIk2kPurA6QNcV/vkl5spX+udNDdy
bNR/2wbJFUDRvZ8GPUup7i90q9Le3giiz2GboNItiyOC8SbsRyzD9RzG+HRfkLyg
JIPjyVpHnBUGoLh4H5FQJWVn8kLrC20PoeE3WquKv1XhL9zhwmwkoBzyj8FR+fAD
uKWVmdB05O0rFXa7SXZVsHvXUUUwCCA7QJfn6JmyRJaxm+r6zuCDHBSm2m+cynVi
WihBbBHj96DPqi4trIn0VtzIuw3kZFCZ/FPSIqkmGYa23gzPfntGAlD8GxRTFq0k
wxKYKbLjU93BxHUtH8IbsKgZx0hxpcCID2V1bbyAsoNb/eK/9ujSo/A44TNbF/UV
ClMVMLglEcM1Tzd5AgAhmAKTzIlBthhcWHKlcP8MIwnvddcJB36A8U1Xh8s1DA8X
NxFBev3jE1P8UEZ1DtB29KPXnvpq2JPEyBG92WdjZ+pSGcqTMXKdhE2lp4eaUg==
-----END CERTIFICATE-----
